target datalayout = "e-m:e-p270:32:32-p271:32:32-p272:64:64-i64:64-i128:128-f80:128-n8:16:32:64-S128"
target triple = "x86_64-pc-linux-gnu"

%class.Mutex = type { ptr, %class.PlatformMonitor, ptr }
%class.PlatformMonitor = type { %class.PlatformMutex, %union.pthread_cond_t }
%class.PlatformMutex = type { %union.pthread_mutex_t }
%union.pthread_mutex_t = type { %struct.__pthread_mutex_s }
%struct.__pthread_mutex_s = type { i32, i32, i32, i32, i32, i16, i16, %struct.__pthread_internal_list }
%struct.__pthread_internal_list = type { ptr, ptr }
%union.pthread_cond_t = type { %struct.__pthread_cond_s }
%struct.__pthread_cond_s = type { %union.__atomic_wide_counter, %union.__atomic_wide_counter, [2 x i32], [2 x i32], i32, i32, [2 x i32] }
%union.__atomic_wide_counter = type { i64 }

; Function Attrs: mustprogress nounwind uwtable
define hidden void @_ZN5MutexC2ENS_4RankEPKcb(ptr noundef nonnull align 8 dereferenceable(104) %0, i32 noundef %1, ptr noundef %2, i1 noundef zeroext %3) unnamed_addr #1 align 2 {
  %5 = alloca ptr, align 8
  %6 = alloca i32, align 4
  %7 = alloca ptr, align 8
  %8 = alloca i8, align 1
  store ptr %0, ptr %5, align 8
  store i32 %1, ptr %6, align 4
  store ptr %2, ptr %7, align 8
  %9 = zext i1 %3 to i8
  store i8 %9, ptr %8, align 1
  %10 = load ptr, ptr %5, align 8
  %11 = getelementptr inbounds %class.Mutex, ptr %10, i32 0, i32 0
  store volatile ptr null, ptr %11, align 8
  %12 = getelementptr inbounds %class.Mutex, ptr %10, i32 0, i32 1
  call void @_ZN15PlatformMonitorC1Ev(ptr noundef nonnull align 8 dereferenceable(88) %12)
  %13 = load ptr, ptr %7, align 8
  %14 = call noundef ptr @_ZN2os6strdupEPKc8MEMFLAGS(ptr noundef %13, i8 noundef zeroext 9)
  %15 = getelementptr inbounds %class.Mutex, ptr %10, i32 0, i32 2
  store ptr %14, ptr %15, align 8
  ret void
}