; Function Attrs: mustprogress nounwind uwtable
define hidden void @_ZN5MutexC2ENS_4RankEPKcb(ptr noundef nonnull align 8 dereferenceable(104) %0, i32 %1, ptr noundef %2, i1 zeroext %3) unnamed_addr #0 align 2 {
  store volatile ptr null, ptr %0, align 8
  %5 = getelementptr inbounds i8, ptr %0, i64 8
  tail call void @_ZN15PlatformMonitorC1Ev(ptr noundef nonnull align 8 dereferenceable(88) %5) #7
  %6 = tail call noundef ptr @_ZN2os6strdupEPKc8MEMFLAGS(ptr noundef %2, i8 noundef zeroext 9) #7
  %7 = getelementptr inbounds i8, ptr %0, i64 96
  store ptr %6, ptr %7, align 8
  ret void
}